; Function Attrs: null_pointer_is_valid sspstrong uwtable
define internal noundef zeroext i16 @de_tp_epc_ue_tl_c_setup(ptr noundef %0, ptr noundef %1, ptr readnone captures(none) %2, i32 noundef %3, i32 %4, ptr readnone captures(none) %5, i32 %6) #1 {
  %8 = load i32, ptr @hf_gsm_a_dtap_epc_ue_tl_c_mbsfn_area_id, align 4
  %9 = shl i32 %3, 3
  %10 = tail call ptr @proto_tree_add_bits_item(ptr noundef %1, i32 noundef %8, ptr noundef %0, i32 noundef %9, i32 noundef 8, i32 noundef 0)
  %11 = load i32, ptr @hf_gsm_a_dtap_epc_ue_tl_c_mch_id, align 4
  %12 = add i32 %9, 12
  %13 = tail call ptr @proto_tree_add_bits_item(ptr noundef %1, i32 noundef %11, ptr noundef %0, i32 noundef %12, i32 noundef 4, i32 noundef 0)
  %14 = load i32, ptr @hf_gsm_a_dtap_epc_ue_tl_c_lcid, align 4
  %15 = add i32 %9, 19
  %16 = tail call ptr @proto_tree_add_bits_item(ptr noundef %1, i32 noundef %14, ptr noundef %0, i32 noundef %15, i32 noundef 5, i32 noundef 0)
  ret i16 3
}